target datalayout = "e-m:e-p270:32:32-p271:32:32-p272:64:64-i64:64-i128:128-f80:128-n8:16:32:64-S128"
target triple = "x86_64-pc-linux-gnu"

%class.btUnionFind = type { %class.btAlignedObjectArray }
%class.btAlignedObjectArray = type <{ [4 x i8], i32, i32, [4 x i8], ptr, i8, [7 x i8] }>
%struct.btElement = type { i32, i32 }

; Function Attrs: mustprogress uwtable
define linkonce_odr dso_local void @_ZN18btAlignedAllocatorI9btElementLj16EE10deallocateEPS0_(ptr noundef nonnull align 1 dereferenceable(1) %0, ptr noundef %1) #2 comdat align 2 {
  %3 = alloca ptr, align 8
  %4 = alloca ptr, align 8
  store ptr %0, ptr %3, align 8, !tbaa !35
  store ptr %1, ptr %4, align 8, !tbaa !16
  %5 = load ptr, ptr %4, align 8, !tbaa !16
  call void @_Z21btAlignedFreeInternalPv(ptr noundef %5)
  ret void
}

; Function Attrs: mustprogress uwtable
define linkonce_odr dso_local noundef ptr @_ZN18btAlignedAllocatorI9btElementLj16EE8allocateEiPPKS0_(ptr noundef nonnull align 1 dereferenceable(1) %0, i32 noundef %1, ptr noundef %2) #2 comdat align 2 {
  %4 = alloca ptr, align 8
  %5 = alloca i32, align 4
  %6 = alloca ptr, align 8
  store ptr %0, ptr %4, align 8, !tbaa !35
  store i32 %1, ptr %5, align 4, !tbaa !9
  store ptr %2, ptr %6, align 8, !tbaa !43
  %7 = load i32, ptr %5, align 4, !tbaa !9
  %8 = sext i32 %7 to i64
  %9 = mul i64 8, %8
  %10 = call noundef ptr @_Z22btAlignedAllocInternalmi(i64 noundef %9, i32 noundef 16)
  ret ptr %10
}

; Function Attrs: inlinehint mustprogress uwtable
define linkonce_odr dso_local void @_ZN20btAlignedObjectArrayI9btElementE10deallocateEv(ptr noundef nonnull align 8 dereferenceable(25) %0) #4 comdat align 2 {
  %2 = alloca ptr, align 8
  store ptr %0, ptr %2, align 8, !tbaa !14
  %3 = load ptr, ptr %2, align 8
  %4 = getelementptr inbounds nuw %class.btAlignedObjectArray, ptr %3, i32 0, i32 4
  %5 = load ptr, ptr %4, align 8, !tbaa !20
  %6 = icmp ne ptr %5, null
  br i1 %6, label %7, label %16

7:                                                ; preds = %1
  %8 = getelementptr inbounds nuw %class.btAlignedObjectArray, ptr %3, i32 0, i32 5
  %9 = load i8, ptr %8, align 8, !tbaa !37, !range !41, !noundef !42
  %10 = trunc i8 %9 to i1
  br i1 %10, label %11, label %14

11:                                               ; preds = %7
  %12 = getelementptr inbounds nuw %class.btAlignedObjectArray, ptr %3, i32 0, i32 4
  %13 = load ptr, ptr %12, align 8, !tbaa !20
  call void @_ZN18btAlignedAllocatorI9btElementLj16EE10deallocateEPS0_(ptr noundef nonnull align 1 dereferenceable(1) %3, ptr noundef %13)
  br label %14

14:                                               ; preds = %11, %7
  %15 = getelementptr inbounds nuw %class.btAlignedObjectArray, ptr %3, i32 0, i32 4
  store ptr null, ptr %15, align 8, !tbaa !20
  br label %16

16:                                               ; preds = %14, %1
  ret void
}

; Function Attrs: inlinehint mustprogress nounwind uwtable
define linkonce_odr dso_local void @_ZN20btAlignedObjectArrayI9btElementE7destroyEii(ptr noundef nonnull align 8 dereferenceable(25) %0, i32 noundef %1, i32 noundef %2) #7 comdat align 2 {
  %4 = alloca ptr, align 8
  %5 = alloca i32, align 4
  %6 = alloca i32, align 4
  %7 = alloca i32, align 4
  store ptr %0, ptr %4, align 8, !tbaa !14
  store i32 %1, ptr %5, align 4, !tbaa !9
  store i32 %2, ptr %6, align 4, !tbaa !9
  call void @llvm.lifetime.start.p0(i64 4, ptr %7) #10
  %8 = load i32, ptr %5, align 4, !tbaa !9
  store i32 %8, ptr %7, align 4, !tbaa !9
  br label %9

9:                                                ; preds = %14, %3
  %10 = load i32, ptr %7, align 4, !tbaa !9
  %11 = load i32, ptr %6, align 4, !tbaa !9
  %12 = icmp slt i32 %10, %11
  br i1 %12, label %13, label %17

13:                                               ; preds = %9
  br label %14

14:                                               ; preds = %13
  %15 = load i32, ptr %7, align 4, !tbaa !9
  %16 = add nsw i32 %15, 1
  store i32 %16, ptr %7, align 4, !tbaa !9
  br label %9, !llvm.loop !40

17:                                               ; preds = %9
  call void @llvm.lifetime.end.p0(i64 4, ptr %7) #10
  ret void
}

; Function Attrs: inlinehint mustprogress nounwind uwtable
define linkonce_odr dso_local void @_ZNK20btAlignedObjectArrayI9btElementE4copyEiiPS0_(ptr noundef nonnull align 8 dereferenceable(25) %0, i32 noundef %1, i32 noundef %2, ptr noundef %3) #7 comdat align 2 {
  %5 = alloca ptr, align 8
  %6 = alloca i32, align 4
  %7 = alloca i32, align 4
  %8 = alloca ptr, align 8
  %9 = alloca i32, align 4
  store ptr %0, ptr %5, align 8, !tbaa !14
  store i32 %1, ptr %6, align 4, !tbaa !9
  store i32 %2, ptr %7, align 4, !tbaa !9
  store ptr %3, ptr %8, align 8, !tbaa !16
  %10 = load ptr, ptr %5, align 8
  call void @llvm.lifetime.start.p0(i64 4, ptr %9) #10
  %11 = load i32, ptr %6, align 4, !tbaa !9
  store i32 %11, ptr %9, align 4, !tbaa !9
  br label %12

12:                                               ; preds = %26, %4
  %13 = load i32, ptr %9, align 4, !tbaa !9
  %14 = load i32, ptr %7, align 4, !tbaa !9
  %15 = icmp slt i32 %13, %14
  br i1 %15, label %16, label %29

16:                                               ; preds = %12
  %17 = load ptr, ptr %8, align 8, !tbaa !16
  %18 = load i32, ptr %9, align 4, !tbaa !9
  %19 = sext i32 %18 to i64
  %20 = getelementptr inbounds %struct.btElement, ptr %17, i64 %19
  %21 = getelementptr inbounds nuw %class.btAlignedObjectArray, ptr %10, i32 0, i32 4
  %22 = load ptr, ptr %21, align 8, !tbaa !20
  %23 = load i32, ptr %9, align 4, !tbaa !9
  %24 = sext i32 %23 to i64
  %25 = getelementptr inbounds %struct.btElement, ptr %22, i64 %24
  call void @llvm.memcpy.p0.p0.i64(ptr align 4 %20, ptr align 4 %25, i64 8, i1 false), !tbaa.struct !24
  br label %26

26:                                               ; preds = %16
  %27 = load i32, ptr %9, align 4, !tbaa !9
  %28 = add nsw i32 %27, 1
  store i32 %28, ptr %9, align 4, !tbaa !9
  br label %12, !llvm.loop !39

29:                                               ; preds = %12
  call void @llvm.lifetime.end.p0(i64 4, ptr %9) #10
  ret void
}

; Function Attrs: inlinehint mustprogress uwtable
define linkonce_odr dso_local noundef ptr @_ZN20btAlignedObjectArrayI9btElementE8allocateEi(ptr noundef nonnull align 8 dereferenceable(25) %0, i32 noundef %1) #4 comdat align 2 {
  %3 = alloca ptr, align 8
  %4 = alloca ptr, align 8
  %5 = alloca i32, align 4
  store ptr %0, ptr %4, align 8, !tbaa !14
  store i32 %1, ptr %5, align 4, !tbaa !9
  %6 = load ptr, ptr %4, align 8
  %7 = load i32, ptr %5, align 4, !tbaa !9
  %8 = icmp ne i32 %7, 0
  br i1 %8, label %9, label %12

9:                                                ; preds = %2
  %10 = load i32, ptr %5, align 4, !tbaa !9
  %11 = call noundef ptr @_ZN18btAlignedAllocatorI9btElementLj16EE8allocateEiPPKS0_(ptr noundef nonnull align 1 dereferenceable(1) %6, i32 noundef %10, ptr noundef null)
  store ptr %11, ptr %3, align 8
  br label %13

12:                                               ; preds = %2
  store ptr null, ptr %3, align 8
  br label %13

13:                                               ; preds = %12, %9
  %14 = load ptr, ptr %3, align 8
  ret ptr %14
}

; Function Attrs: inlinehint mustprogress nounwind uwtable
define linkonce_odr dso_local noundef i32 @_ZNK20btAlignedObjectArrayI9btElementE8capacityEv(ptr noundef nonnull align 8 dereferenceable(25) %0) #7 comdat align 2 {
  %2 = alloca ptr, align 8
  store ptr %0, ptr %2, align 8, !tbaa !14
  %3 = load ptr, ptr %2, align 8
  %4 = getelementptr inbounds nuw %class.btAlignedObjectArray, ptr %3, i32 0, i32 2
  %5 = load i32, ptr %4, align 8, !tbaa !38
  ret i32 %5
}

; Function Attrs: inlinehint mustprogress uwtable
define linkonce_odr dso_local void @_ZN20btAlignedObjectArrayI9btElementE7reserveEi(ptr noundef nonnull align 8 dereferenceable(25) %0, i32 noundef %1) #4 comdat align 2 {
  %3 = alloca ptr, align 8
  %4 = alloca i32, align 4
  %5 = alloca ptr, align 8
  store ptr %0, ptr %3, align 8, !tbaa !14
  store i32 %1, ptr %4, align 4, !tbaa !9
  %6 = load ptr, ptr %3, align 8
  %7 = call noundef i32 @_ZNK20btAlignedObjectArrayI9btElementE8capacityEv(ptr noundef nonnull align 8 dereferenceable(25) %6)
  %8 = load i32, ptr %4, align 4, !tbaa !9
  %9 = icmp slt i32 %7, %8
  br i1 %9, label %10, label %21

10:                                               ; preds = %2
  call void @llvm.lifetime.start.p0(i64 8, ptr %5) #10
  %11 = load i32, ptr %4, align 4, !tbaa !9
  %12 = call noundef ptr @_ZN20btAlignedObjectArrayI9btElementE8allocateEi(ptr noundef nonnull align 8 dereferenceable(25) %6, i32 noundef %11)
  store ptr %12, ptr %5, align 8, !tbaa !16
  %13 = call noundef i32 @_ZNK20btAlignedObjectArrayI9btElementE4sizeEv(ptr noundef nonnull align 8 dereferenceable(25) %6)
  %14 = load ptr, ptr %5, align 8, !tbaa !16
  call void @_ZNK20btAlignedObjectArrayI9btElementE4copyEiiPS0_(ptr noundef nonnull align 8 dereferenceable(25) %6, i32 noundef 0, i32 noundef %13, ptr noundef %14)
  %15 = call noundef i32 @_ZNK20btAlignedObjectArrayI9btElementE4sizeEv(ptr noundef nonnull align 8 dereferenceable(25) %6)
  call void @_ZN20btAlignedObjectArrayI9btElementE7destroyEii(ptr noundef nonnull align 8 dereferenceable(25) %6, i32 noundef 0, i32 noundef %15)
  call void @_ZN20btAlignedObjectArrayI9btElementE10deallocateEv(ptr noundef nonnull align 8 dereferenceable(25) %6)
  %16 = getelementptr inbounds nuw %class.btAlignedObjectArray, ptr %6, i32 0, i32 5
  store i8 1, ptr %16, align 8, !tbaa !37
  %17 = load ptr, ptr %5, align 8, !tbaa !16
  %18 = getelementptr inbounds nuw %class.btAlignedObjectArray, ptr %6, i32 0, i32 4
  store ptr %17, ptr %18, align 8, !tbaa !20
  %19 = load i32, ptr %4, align 4, !tbaa !9
  %20 = getelementptr inbounds nuw %class.btAlignedObjectArray, ptr %6, i32 0, i32 2
  store i32 %19, ptr %20, align 8, !tbaa !38
  call void @llvm.lifetime.end.p0(i64 8, ptr %5) #10
  br label %21

21:                                               ; preds = %10, %2
  ret void
}

; Function Attrs: inlinehint mustprogress nounwind uwtable
define linkonce_odr dso_local noundef i32 @_ZNK20btAlignedObjectArrayI9btElementE4sizeEv(ptr noundef nonnull align 8 dereferenceable(25) %0) #7 comdat align 2 {
  %2 = alloca ptr, align 8
  store ptr %0, ptr %2, align 8, !tbaa !14
  %3 = load ptr, ptr %2, align 8
  %4 = getelementptr inbounds nuw %class.btAlignedObjectArray, ptr %3, i32 0, i32 1
  %5 = load i32, ptr %4, align 4, !tbaa !26
  ret i32 %5
}

; Function Attrs: inlinehint mustprogress uwtable
define linkonce_odr dso_local void @_ZN20btAlignedObjectArrayI9btElementE6resizeEiRKS0_(ptr noundef nonnull align 8 dereferenceable(25) %0, i32 noundef %1, ptr noundef nonnull align 4 dereferenceable(8) %2) #4 comdat align 2 {
  %4 = alloca ptr, align 8
  %5 = alloca i32, align 4
  %6 = alloca ptr, align 8
  %7 = alloca i32, align 4
  %8 = alloca i32, align 4
  %9 = alloca i32, align 4
  store ptr %0, ptr %4, align 8, !tbaa !14
  store i32 %1, ptr %5, align 4, !tbaa !9
  store ptr %2, ptr %6, align 8, !tbaa !16
  %10 = load ptr, ptr %4, align 8
  call void @llvm.lifetime.start.p0(i64 4, ptr %7) #10
  %11 = call noundef i32 @_ZNK20btAlignedObjectArrayI9btElementE4sizeEv(ptr noundef nonnull align 8 dereferenceable(25) %10)
  store i32 %11, ptr %7, align 4, !tbaa !9
  %12 = load i32, ptr %5, align 4, !tbaa !9
  %13 = load i32, ptr %7, align 4, !tbaa !9
  %14 = icmp slt i32 %12, %13
  br i1 %14, label %15, label %27

15:                                               ; preds = %3
  call void @llvm.lifetime.start.p0(i64 4, ptr %8) #10
  %16 = load i32, ptr %5, align 4, !tbaa !9
  store i32 %16, ptr %8, align 4, !tbaa !9
  br label %17

17:                                               ; preds = %23, %15
  %18 = load i32, ptr %8, align 4, !tbaa !9
  %19 = load i32, ptr %7, align 4, !tbaa !9
  %20 = icmp slt i32 %18, %19
  br i1 %20, label %22, label %21

21:                                               ; preds = %17
  call void @llvm.lifetime.end.p0(i64 4, ptr %8) #10
  br label %26

22:                                               ; preds = %17
  br label %23

23:                                               ; preds = %22
  %24 = load i32, ptr %8, align 4, !tbaa !9
  %25 = add nsw i32 %24, 1
  store i32 %25, ptr %8, align 4, !tbaa !9
  br label %17, !llvm.loop !18

26:                                               ; preds = %21
  br label %51

27:                                               ; preds = %3
  %28 = load i32, ptr %5, align 4, !tbaa !9
  %29 = load i32, ptr %7, align 4, !tbaa !9
  %30 = icmp sgt i32 %28, %29
  br i1 %30, label %31, label %33

31:                                               ; preds = %27
  %32 = load i32, ptr %5, align 4, !tbaa !9
  call void @_ZN20btAlignedObjectArrayI9btElementE7reserveEi(ptr noundef nonnull align 8 dereferenceable(25) %10, i32 noundef %32)
  br label %33

33:                                               ; preds = %31, %27
  call void @llvm.lifetime.start.p0(i64 4, ptr %9) #10
  %34 = load i32, ptr %7, align 4, !tbaa !9
  store i32 %34, ptr %9, align 4, !tbaa !9
  br label %35

35:                                               ; preds = %47, %33
  %36 = load i32, ptr %9, align 4, !tbaa !9
  %37 = load i32, ptr %5, align 4, !tbaa !9
  %38 = icmp slt i32 %36, %37
  br i1 %38, label %40, label %39

39:                                               ; preds = %35
  call void @llvm.lifetime.end.p0(i64 4, ptr %9) #10
  br label %50

40:                                               ; preds = %35
  %41 = getelementptr inbounds nuw %class.btAlignedObjectArray, ptr %10, i32 0, i32 4
  %42 = load ptr, ptr %41, align 8, !tbaa !20
  %43 = load i32, ptr %9, align 4, !tbaa !9
  %44 = sext i32 %43 to i64
  %45 = getelementptr inbounds %struct.btElement, ptr %42, i64 %44
  %46 = load ptr, ptr %6, align 8, !tbaa !16
  call void @llvm.memcpy.p0.p0.i64(ptr align 4 %45, ptr align 4 %46, i64 8, i1 false), !tbaa.struct !24
  br label %47

47:                                               ; preds = %40
  %48 = load i32, ptr %9, align 4, !tbaa !9
  %49 = add nsw i32 %48, 1
  store i32 %49, ptr %9, align 4, !tbaa !9
  br label %35, !llvm.loop !25

50:                                               ; preds = %39
  br label %51

51:                                               ; preds = %50, %26
  %52 = load i32, ptr %5, align 4, !tbaa !9
  %53 = getelementptr inbounds nuw %class.btAlignedObjectArray, ptr %10, i32 0, i32 1
  store i32 %52, ptr %53, align 4, !tbaa !26
  call void @llvm.lifetime.end.p0(i64 4, ptr %7) #10
  ret void
}

; Function Attrs: inlinehint mustprogress nounwind uwtable
define linkonce_odr dso_local noundef nonnull align 4 dereferenceable(8) ptr @_ZN20btAlignedObjectArrayI9btElementEixEi(ptr noundef nonnull align 8 dereferenceable(25) %0, i32 noundef %1) #7 comdat align 2 {
  %3 = alloca ptr, align 8
  %4 = alloca i32, align 4
  store ptr %0, ptr %3, align 8, !tbaa !14
  store i32 %1, ptr %4, align 4, !tbaa !9
  %5 = load ptr, ptr %3, align 8
  %6 = getelementptr inbounds nuw %class.btAlignedObjectArray, ptr %5, i32 0, i32 4
  %7 = load ptr, ptr %6, align 8, !tbaa !20
  %8 = load i32, ptr %4, align 4, !tbaa !9
  %9 = sext i32 %8 to i64
  %10 = getelementptr inbounds %struct.btElement, ptr %7, i64 %9
  ret ptr %10
}

; Function Attrs: mustprogress uwtable
define dso_local void @_ZN11btUnionFind8allocateEi(ptr noundef nonnull align 8 dereferenceable(32) %0, i32 noundef %1) #2 align 2 {
  %3 = alloca ptr, align 8
  %4 = alloca i32, align 4
  %5 = alloca %struct.btElement, align 4
  store ptr %0, ptr %3, align 8, !tbaa !12
  store i32 %1, ptr %4, align 4, !tbaa !9
  %6 = load ptr, ptr %3, align 8
  %7 = getelementptr inbounds nuw %class.btUnionFind, ptr %6, i32 0, i32 0
  %8 = load i32, ptr %4, align 4, !tbaa !9
  call void @llvm.lifetime.start.p0(i64 8, ptr %5) #10
  call void @llvm.memset.p0.i64(ptr align 4 %5, i8 0, i64 8, i1 false)
  call void @_ZN20btAlignedObjectArrayI9btElementE6resizeEiRKS0_(ptr noundef nonnull align 8 dereferenceable(25) %7, i32 noundef %8, ptr noundef nonnull align 4 dereferenceable(8) %5)
  call void @llvm.lifetime.end.p0(i64 8, ptr %5) #10
  ret void
}

; Function Attrs: mustprogress uwtable
define dso_local void @_ZN11btUnionFind5resetEi(ptr noundef nonnull align 8 dereferenceable(32) %0, i32 noundef %1) #2 align 2 {
  %3 = alloca ptr, align 8
  %4 = alloca i32, align 4
  %5 = alloca i32, align 4
  store ptr %0, ptr %3, align 8, !tbaa !12
  store i32 %1, ptr %4, align 4, !tbaa !9
  %6 = load ptr, ptr %3, align 8
  %7 = load i32, ptr %4, align 4, !tbaa !9
  call void @_ZN11btUnionFind8allocateEi(ptr noundef nonnull align 8 dereferenceable(32) %6, i32 noundef %7)
  call void @llvm.lifetime.start.p0(i64 4, ptr %5) #10
  store i32 0, ptr %5, align 4, !tbaa !9
  br label %8

8:                                                ; preds = %23, %2
  %9 = load i32, ptr %5, align 4, !tbaa !9
  %10 = load i32, ptr %4, align 4, !tbaa !9
  %11 = icmp slt i32 %9, %10
  br i1 %11, label %13, label %12

12:                                               ; preds = %8
  call void @llvm.lifetime.end.p0(i64 4, ptr %5) #10
  br label %26

13:                                               ; preds = %8
  %14 = load i32, ptr %5, align 4, !tbaa !9
  %15 = getelementptr inbounds nuw %class.btUnionFind, ptr %6, i32 0, i32 0
  %16 = load i32, ptr %5, align 4, !tbaa !9
  %17 = call noundef nonnull align 4 dereferenceable(8) ptr @_ZN20btAlignedObjectArrayI9btElementEixEi(ptr noundef nonnull align 8 dereferenceable(25) %15, i32 noundef %16)
  %18 = getelementptr inbounds nuw %struct.btElement, ptr %17, i32 0, i32 0
  store i32 %14, ptr %18, align 4, !tbaa !27
  %19 = getelementptr inbounds nuw %class.btUnionFind, ptr %6, i32 0, i32 0
  %20 = load i32, ptr %5, align 4, !tbaa !9
  %21 = call noundef nonnull align 4 dereferenceable(8) ptr @_ZN20btAlignedObjectArrayI9btElementEixEi(ptr noundef nonnull align 8 dereferenceable(25) %19, i32 noundef %20)
  %22 = getelementptr inbounds nuw %struct.btElement, ptr %21, i32 0, i32 1
  store i32 1, ptr %22, align 4, !tbaa !29
  br label %23

23:                                               ; preds = %13
  %24 = load i32, ptr %5, align 4, !tbaa !9
  %25 = add nsw i32 %24, 1
  store i32 %25, ptr %5, align 4, !tbaa !9
  br label %8, !llvm.loop !30

26:                                               ; preds = %12
  ret void
}